target datalayout = "e-m:e-p270:32:32-p271:32:32-p272:64:64-i64:64-i128:128-f80:128-n8:16:32:64-S128"
target triple = "x86_64-pc-linux-gnu"

%"struct.(anonymous namespace)::EncapsulateInvertedLists" = type { %"struct.faiss::InvertedLists.base", ptr }
%"struct.faiss::InvertedLists.base" = type <{ ptr, i64, i64, i8 }>

; Function Attrs: mustprogress uwtable
define internal noundef i64 @_ZNK12_GLOBAL__N_124EncapsulateInvertedLists9list_sizeEm(ptr noundef nonnull align 8 dereferenceable(40) %0, i64 noundef %1) unnamed_addr #2 align 2 {
  %3 = alloca ptr, align 8
  %4 = alloca i64, align 8
  store ptr %0, ptr %3, align 8, !tbaa !122
  store i64 %1, ptr %4, align 8, !tbaa !18
  %5 = load ptr, ptr %3, align 8
  %6 = getelementptr inbounds nuw %"struct.(anonymous namespace)::EncapsulateInvertedLists", ptr %5, i32 0, i32 1
  %7 = load ptr, ptr %6, align 8, !tbaa !108
  %8 = load i64, ptr %4, align 8, !tbaa !18
  %9 = load ptr, ptr %7, align 8, !tbaa !43
  %10 = getelementptr inbounds ptr, ptr %9, i64 2
  %11 = load ptr, ptr %10, align 8
  %12 = call noundef i64 %11(ptr noundef nonnull align 8 dereferenceable(25) %7, i64 noundef %8)
  ret i64 %12
}