; Function Attrs: mustprogress uwtable
define internal noundef i64 @_ZNK12_GLOBAL__N_124EncapsulateInvertedLists9list_sizeEm(ptr noundef nonnull readonly align 8 captures(none) dereferenceable(40) %0, i64 noundef %1) unnamed_addr #2 align 2 {
  %3 = getelementptr inbounds nuw i8, ptr %0, i64 32
  %4 = load ptr, ptr %3, align 8, !tbaa !79
  %5 = load ptr, ptr %4, align 8, !tbaa !5
  %6 = getelementptr inbounds nuw i8, ptr %5, i64 16
  %7 = load ptr, ptr %6, align 8
  %8 = tail call noundef i64 %7(ptr noundef nonnull align 8 dereferenceable(25) %4, i64 noundef %1)
  ret i64 %8
}